; Function Attrs: mustprogress uwtable
define hidden void @_ZN4cvc58internal6theory5arith6linear14ArithVariables15addToBoundQueueEjRKNS3_10BoundsInfoE(ptr noundef nonnull align 8 dereferenceable(568) %this, i32 noundef %v, ptr noundef nonnull align 4 dereferenceable(16) %prev) local_unnamed_addr #3 align 2 {
entry:
  %d_enqueueingBoundCounts = getelementptr inbounds i8, ptr %this, i64 328
  %0 = load i8, ptr %d_enqueueingBoundCounts, align 8
  %1 = and i8 %0, 1
  %tobool.not = icmp eq i8 %1, 0
  br i1 %tobool.not, label %if.end, label %land.lhs.true

land.lhs.true:                                    ; preds = %entry
  %d_boundsQueue = getelementptr inbounds i8, ptr %this, i64 256
  %conv.i = zext i32 %v to i64
  %d_posVector.i.i = getelementptr inbounds i8, ptr %this, i64 280
  %_M_finish.i.i.i = getelementptr inbounds i8, ptr %this, i64 288
  %2 = load ptr, ptr %_M_finish.i.i.i, align 8
  %3 = load ptr, ptr %d_posVector.i.i, align 8
  %sub.ptr.lhs.cast.i.i.i = ptrtoint ptr %2 to i64
  %sub.ptr.rhs.cast.i.i.i = ptrtoint ptr %3 to i64
  %sub.ptr.sub.i.i.i = sub i64 %sub.ptr.lhs.cast.i.i.i, %sub.ptr.rhs.cast.i.i.i
  %sub.ptr.div.i.i.i = ashr exact i64 %sub.ptr.sub.i.i.i, 2
  %cmp.not.i = icmp ugt i64 %sub.ptr.div.i.i.i, %conv.i
  br i1 %cmp.not.i, label %_ZNK4cvc58internal8DenseMapINS0_6theory5arith6linear10BoundsInfoEE5isKeyEj.exit, label %if.then

_ZNK4cvc58internal8DenseMapINS0_6theory5arith6linear10BoundsInfoEE5isKeyEj.exit: ; preds = %land.lhs.true
  %add.ptr.i.i = getelementptr inbounds i32, ptr %3, i64 %conv.i
  %4 = load i32, ptr %add.ptr.i.i, align 4
  %cmp4.i.not = icmp eq i32 %4, -1
  br i1 %cmp4.i.not, label %if.then, label %if.end

if.then:                                          ; preds = %land.lhs.true, %_ZNK4cvc58internal8DenseMapINS0_6theory5arith6linear10BoundsInfoEE5isKeyEj.exit
  tail call void @_ZN4cvc58internal8DenseMapINS0_6theory5arith6linear10BoundsInfoEE3setEjRKS5_(ptr noundef nonnull align 8 dereferenceable(72) %d_boundsQueue, i32 noundef %v, ptr noundef nonnull align 4 dereferenceable(16) %prev)
  br label %if.end

if.end:                                           ; preds = %if.then, %_ZNK4cvc58internal8DenseMapINS0_6theory5arith6linear10BoundsInfoEE5isKeyEj.exit, %entry
  ret void
}